; Function Attrs: mustprogress uwtable
define hidden void @_ZN3ue222ComponentCondReferenceC2ERKNSt7__cxx1112basic_stringIcSt11char_traitsIcESaIcEEE(ptr noundef nonnull align 8 dereferenceable(137) %this, ptr noundef nonnull align 8 dereferenceable(32) %name) unnamed_addr #0 align 2 personality ptr @__gxx_personality_v0 {
entry:
  tail call void @_ZN3ue217ComponentSequenceC2Ev(ptr noundef nonnull align 8 dereferenceable(88) %this)
  store ptr getelementptr inbounds ({ [20 x ptr] }, ptr @_ZTVN3ue222ComponentCondReferenceE, i64 0, i32 0, i64 2), ptr %this, align 8
  %kind = getelementptr inbounds i8, ptr %this, i64 88
  store i32 1, ptr %kind, align 8
  %ref_id = getelementptr inbounds i8, ptr %this, i64 92
  store i32 0, ptr %ref_id, align 4
  %ref_name = getelementptr inbounds i8, ptr %this, i64 96
  invoke void @_ZNSt7__cxx1112basic_stringIcSt11char_traitsIcESaIcEEC1ERKS4_(ptr noundef nonnull align 8 dereferenceable(32) %ref_name, ptr noundef nonnull align 8 dereferenceable(32) %name)
          to label %invoke.cont unwind label %lpad

invoke.cont:                                      ; preds = %entry
  %assertion = getelementptr inbounds i8, ptr %this, i64 128
  store ptr null, ptr %assertion, align 8
  %hasBothBranches = getelementptr inbounds i8, ptr %this, i64 136
  store i8 0, ptr %hasBothBranches, align 8
  ret void

lpad:                                             ; preds = %entry
  %0 = landingpad { ptr, i32 }
          cleanup
  tail call void @_ZN3ue217ComponentSequenceD2Ev(ptr noundef nonnull align 8 dereferenceable(88) %this) #13
  resume { ptr, i32 } %0
}